target datalayout = "e-m:e-p270:32:32-p271:32:32-p272:64:64-i64:64-i128:128-f80:128-n8:16:32:64-S128"
target triple = "x86_64-pc-linux-gnu"

%struct._VAConfigAttrib = type { i32, i32 }
%struct.AVCodecContext = type { ptr, i32, i32, ptr, i32, i32, ptr, ptr, ptr, i64, i32, i32, ptr, i32, %struct.AVRational, %struct.AVRational, %struct.AVRational, i32, i32, i32, i32, i32, %struct.AVRational, i32, i32, i32, i32, i32, i32, i32, i32, i32, i32, i32, ptr, ptr, i32, float, float, float, float, float, float, float, float, float, i32, i32, i32, i32, i32, i32, i32, i32, i32, i32, i32, i32, ptr, ptr, ptr, i32, i32, i32, i32, i32, i32, i32, i32, i32, i32, %struct.AVChannelLayout, i32, i32, i32, i32, i32, i32, i32, i32, ptr, i32, i32, i32, float, float, i32, i32, i32, i32, i32, ptr, i64, i64, float, float, i32, i32, ptr, ptr, i32, i32, i32, i32, i32, ptr, ptr, ptr, ptr, i32, i32, [8 x i64], i32, i32, i32, i32, i32, i32, i32, ptr, ptr, i32, i32, i32, i32, i32, i32, i32, i32, i32, i32, ptr, ptr, i32, i32, ptr, ptr, ptr, ptr, i32, i32, i64, i32, i32, i64, ptr, i64, ptr, i32, ptr, i32 }
%struct.AVRational = type { i32, i32 }
%struct.AVChannelLayout = type { i32, i32, %union.anon.1, ptr }
%union.anon.1 = type { i64 }
%struct.VAAPIEncodeContext = type { %struct.FFHWBaseEncodeContext, ptr, i32, i32, i32, i32, i32, i32, ptr, ptr, i32, i32, i32, i32, i32, i32, [4 x %struct._VAConfigAttrib], i32, i32, i32, ptr, ptr, [4 x i32], [4 x ptr], [4 x i64], i32, %struct._VAEncMiscParameterRateControl, %struct._VAEncMiscParameterHRD, %struct._VAEncMiscParameterFrameRate, %struct._VAEncMiscParameterBufferMaxFrameSize, %struct._VAEncMiscParameterBufferQualityLevel, ptr, ptr, i32, i32, i32, i32, i32, i32, [20 x i32], [22 x i32], [21 x i32], [23 x i32], i32, i32, ptr, i32, i32 }
%struct.FFHWBaseEncodeContext = type { ptr, ptr, ptr, i32, i32, i32, i32, i32, i32, ptr, ptr, ptr, ptr, ptr, ptr, ptr, ptr, [2 x ptr], i32, i64, i64, i64, i64, i64, i64, i64, [112 x i64], i32, i32, i32, i32, i32, i32, i32, i32, i32, i32, i32, i32, i32, i32, i32, i32, ptr, i32, ptr, i32, ptr }
%struct._VAEncMiscParameterRateControl = type { i32, i32, i32, i32, i32, i32, %union.anon.2, i32, i32, i32, i32, [4 x i32] }
%union.anon.2 = type { %struct.anon }
%struct.anon = type { i32 }
%struct._VAEncMiscParameterHRD = type { i32, i32, [4 x i32] }
%struct._VAEncMiscParameterFrameRate = type { i32, %union.anon.3, [4 x i32] }
%union.anon.3 = type { %struct.anon.4 }
%struct.anon.4 = type { i32 }
%struct._VAEncMiscParameterBufferMaxFrameSize = type { i32, i32, [4 x i32] }
%struct._VAEncMiscParameterBufferQualityLevel = type { i32, [4 x i32] }
%struct.VAAPIEncodeAV1Context = type { %struct.VAAPIEncodeContext, %struct.AV1RawOBU, %struct.AV1RawOBU, [4 x %struct.AV1RawOBU], i32, ptr, %struct.CodedBitstreamFragment, %union._VAConfigAttribValEncAV1, %union._VAConfigAttribValEncAV1Ext1, %union._VAConfigAttribValEncAV1Ext2, [1024 x i8], i64, [1024 x i8], i64, i8, i8, i32, i32, i32, i32, i32, i32, [64 x i8], [64 x i8], i32, i32, i32, i32, i32, i32, i32, i32, i32, i32, i32, i32, i32, i32, i32, i32, i32 }
%struct.AV1RawOBU = type { %struct.AV1RawOBUHeader, i64, %union.anon.5 }
%struct.AV1RawOBUHeader = type { i8, i8, i8, i8, i8, i8, i8, i8 }
%union.anon.5 = type { %struct.AV1RawMetadata }
%struct.AV1RawMetadata = type { i64, %union.anon.6 }
%union.anon.6 = type { %struct.AV1RawMetadataITUTT35, [2800 x i8] }
%struct.AV1RawMetadataITUTT35 = type { i8, i8, ptr, ptr, i64 }
%struct.CodedBitstreamFragment = type { ptr, i64, i64, ptr, i32, i32, ptr }
%union._VAConfigAttribValEncAV1 = type { %struct.anon.7 }
%struct.anon.7 = type { i32 }
%union._VAConfigAttribValEncAV1Ext1 = type { %struct.anon.8 }
%struct.anon.8 = type { i32 }
%union._VAConfigAttribValEncAV1Ext2 = type { %struct.anon.9 }
%struct.anon.9 = type { i32 }
%struct.CodedBitstreamContext = type { ptr, ptr, ptr, ptr, i32, i32, i32, ptr, ptr, ptr, ptr, i64 }
%struct.VAAPIEncodeSlice = type { i32, i32, i32, i32, i32, ptr }
%struct._VAEncTileGroupBufferAV1 = type { i8, i8, [4 x i32] }
%struct.CodedBitstreamAV1Context = type { ptr, ptr, ptr, i32, ptr, ptr, i64, i32, i32, i32, i32, i32, i32, i32, i32, i32, i32, i32, i32, i32, i32, i32, i32, [8 x i32], [8 x i32], [8 x %struct.AV1ReferenceFrameState], i32, i32, [8 x i8], [2 x i8], [8 x [8 x i8]], [8 x [8 x i16]] }
%struct.AV1ReferenceFrameState = type { i32, i32, i32, i32, i32, i32, i32, i32, i32, i32, i32, i32, [8 x i32], [8 x i8], [2 x i8], [8 x [8 x i8]], [8 x [8 x i16]] }

; Function Attrs: nounwind uwtable
define internal i32 @vaapi_encode_av1_init_slice_params(ptr noundef %0, ptr noundef %1, ptr noundef %2) #3 {
  %4 = alloca ptr, align 8
  %5 = alloca ptr, align 8
  %6 = alloca ptr, align 8
  %7 = alloca ptr, align 8
  %8 = alloca ptr, align 8
  %9 = alloca ptr, align 8
  %10 = alloca i32, align 4
  store ptr %0, ptr %4, align 8, !tbaa !4
  store ptr %1, ptr %5, align 8, !tbaa !197
  store ptr %2, ptr %6, align 8, !tbaa !326
  call void @llvm.lifetime.start.p0(i64 8, ptr %7) #12
  %11 = load ptr, ptr %4, align 8, !tbaa !4
  %12 = getelementptr inbounds nuw %struct.AVCodecContext, ptr %11, i32 0, i32 6
  %13 = load ptr, ptr %12, align 8, !tbaa !9
  store ptr %13, ptr %7, align 8, !tbaa !31
  call void @llvm.lifetime.start.p0(i64 8, ptr %8) #12
  %14 = load ptr, ptr %6, align 8, !tbaa !326
  %15 = getelementptr inbounds nuw %struct.VAAPIEncodeSlice, ptr %14, i32 0, i32 5
  %16 = load ptr, ptr %15, align 8, !tbaa !327
  store ptr %16, ptr %8, align 8, !tbaa !329
  call void @llvm.lifetime.start.p0(i64 8, ptr %9) #12
  %17 = load ptr, ptr %7, align 8, !tbaa !31
  %18 = getelementptr inbounds nuw %struct.VAAPIEncodeAV1Context, ptr %17, i32 0, i32 5
  %19 = load ptr, ptr %18, align 8, !tbaa !74
  %20 = getelementptr inbounds nuw %struct.CodedBitstreamContext, ptr %19, i32 0, i32 2
  %21 = load ptr, ptr %20, align 8, !tbaa !75
  store ptr %21, ptr %9, align 8, !tbaa !331
  call void @llvm.lifetime.start.p0(i64 4, ptr %10) #12
  %22 = load ptr, ptr %7, align 8, !tbaa !31
  %23 = getelementptr inbounds nuw %struct.VAAPIEncodeAV1Context, ptr %22, i32 0, i32 38
  %24 = load i32, ptr %23, align 4, !tbaa !78
  %25 = load ptr, ptr %7, align 8, !tbaa !31
  %26 = getelementptr inbounds nuw %struct.VAAPIEncodeAV1Context, ptr %25, i32 0, i32 39
  %27 = load i32, ptr %26, align 8, !tbaa !79
  %28 = mul nsw i32 %24, %27
  %29 = load ptr, ptr %7, align 8, !tbaa !31
  %30 = getelementptr inbounds nuw %struct.VAAPIEncodeAV1Context, ptr %29, i32 0, i32 40
  %31 = load i32, ptr %30, align 4, !tbaa !100
  %32 = sdiv i32 %28, %31
  store i32 %32, ptr %10, align 4, !tbaa !64
  %33 = load ptr, ptr %6, align 8, !tbaa !326
  %34 = getelementptr inbounds nuw %struct.VAAPIEncodeSlice, ptr %33, i32 0, i32 0
  %35 = load i32, ptr %34, align 8, !tbaa !333
  %36 = load i32, ptr %10, align 4, !tbaa !64
  %37 = mul nsw i32 %35, %36
  %38 = trunc i32 %37 to i8
  %39 = load ptr, ptr %8, align 8, !tbaa !329
  %40 = getelementptr inbounds nuw %struct._VAEncTileGroupBufferAV1, ptr %39, i32 0, i32 0
  store i8 %38, ptr %40, align 4, !tbaa !334
  %41 = load ptr, ptr %6, align 8, !tbaa !326
  %42 = getelementptr inbounds nuw %struct.VAAPIEncodeSlice, ptr %41, i32 0, i32 0
  %43 = load i32, ptr %42, align 8, !tbaa !333
  %44 = load ptr, ptr %7, align 8, !tbaa !31
  %45 = getelementptr inbounds nuw %struct.VAAPIEncodeAV1Context, ptr %44, i32 0, i32 40
  %46 = load i32, ptr %45, align 4, !tbaa !100
  %47 = sub nsw i32 %46, 1
  %48 = icmp eq i32 %43, %47
  br i1 %48, label %49, label %63

49:                                               ; preds = %3
  %50 = load ptr, ptr %7, align 8, !tbaa !31
  %51 = getelementptr inbounds nuw %struct.VAAPIEncodeAV1Context, ptr %50, i32 0, i32 38
  %52 = load i32, ptr %51, align 4, !tbaa !78
  %53 = load ptr, ptr %7, align 8, !tbaa !31
  %54 = getelementptr inbounds nuw %struct.VAAPIEncodeAV1Context, ptr %53, i32 0, i32 39
  %55 = load i32, ptr %54, align 8, !tbaa !79
  %56 = mul nsw i32 %52, %55
  %57 = sub nsw i32 %56, 1
  %58 = trunc i32 %57 to i8
  %59 = load ptr, ptr %8, align 8, !tbaa !329
  %60 = getelementptr inbounds nuw %struct._VAEncTileGroupBufferAV1, ptr %59, i32 0, i32 1
  store i8 %58, ptr %60, align 1, !tbaa !336
  %61 = load ptr, ptr %9, align 8, !tbaa !331
  %62 = getelementptr inbounds nuw %struct.CodedBitstreamAV1Context, ptr %61, i32 0, i32 3
  store i32 0, ptr %62, align 8, !tbaa !337
  br label %74

63:                                               ; preds = %3
  %64 = load ptr, ptr %6, align 8, !tbaa !326
  %65 = getelementptr inbounds nuw %struct.VAAPIEncodeSlice, ptr %64, i32 0, i32 0
  %66 = load i32, ptr %65, align 8, !tbaa !333
  %67 = add nsw i32 %66, 1
  %68 = load i32, ptr %10, align 4, !tbaa !64
  %69 = mul nsw i32 %67, %68
  %70 = sub nsw i32 %69, 1
  %71 = trunc i32 %70 to i8
  %72 = load ptr, ptr %8, align 8, !tbaa !329
  %73 = getelementptr inbounds nuw %struct._VAEncTileGroupBufferAV1, ptr %72, i32 0, i32 1
  store i8 %71, ptr %73, align 1, !tbaa !336
  br label %74

74:                                               ; preds = %63, %49
  call void @llvm.lifetime.end.p0(i64 4, ptr %10) #12
  call void @llvm.lifetime.end.p0(i64 8, ptr %9) #12
  call void @llvm.lifetime.end.p0(i64 8, ptr %8) #12
  call void @llvm.lifetime.end.p0(i64 8, ptr %7) #12
  ret i32 0
}