; Function Attrs: mustprogress nofree norecurse nosync nounwind willreturn memory(readwrite, inaccessiblemem: none) uwtable
define internal noundef i32 @vaapi_encode_av1_init_slice_params(ptr noundef readonly captures(none) %0, ptr readnone captures(none) %1, ptr noundef readonly captures(none) %2) #5 {
  %4 = getelementptr inbounds nuw i8, ptr %0, i64 32
  %5 = load ptr, ptr %4, align 8, !tbaa !4
  %6 = getelementptr inbounds nuw i8, ptr %2, i64 24
  %7 = load ptr, ptr %6, align 8, !tbaa !274
  %8 = getelementptr inbounds nuw i8, ptr %5, i64 19120
  %9 = load ptr, ptr %8, align 8, !tbaa !67
  %10 = getelementptr inbounds nuw i8, ptr %9, i64 16
  %11 = load ptr, ptr %10, align 8, !tbaa !68
  %12 = getelementptr inbounds nuw i8, ptr %5, i64 21468
  %13 = load i32, ptr %12, align 4, !tbaa !71
  %14 = getelementptr inbounds nuw i8, ptr %5, i64 21472
  %15 = load i32, ptr %14, align 8, !tbaa !72
  %16 = mul nsw i32 %15, %13
  %17 = getelementptr inbounds nuw i8, ptr %5, i64 21476
  %18 = load i32, ptr %17, align 4, !tbaa !93
  %19 = sdiv i32 %16, %18
  %20 = load i32, ptr %2, align 8, !tbaa !276
  %21 = mul nsw i32 %20, %19
  %22 = trunc i32 %21 to i8
  store i8 %22, ptr %7, align 4, !tbaa !277
  %23 = add nsw i32 %18, -1
  %24 = icmp eq i32 %20, %23
  br i1 %24, label %25, label %27

25:                                               ; preds = %3
  %26 = getelementptr inbounds nuw i8, ptr %11, i64 24
  store i32 0, ptr %26, align 8, !tbaa !279
  br label %30

27:                                               ; preds = %3
  %28 = add nsw i32 %20, 1
  %29 = mul nsw i32 %28, %19
  br label %30

30:                                               ; preds = %27, %25
  %.sink.in.in = phi i32 [ %16, %25 ], [ %29, %27 ]
  %.sink.in = trunc i32 %.sink.in.in to i8
  %.sink = add i8 %.sink.in, -1
  %31 = getelementptr inbounds nuw i8, ptr %7, i64 1
  store i8 %.sink, ptr %31, align 1, !tbaa !283
  ret i32 0
}